; Function Attrs: mustprogress nounwind uwtable
define hidden void @_ZN16MutableNUMASpace7set_topEPP12HeapWordImpl(ptr noundef nonnull align 8 dereferenceable(96) %0, ptr noundef %1) unnamed_addr #0 align 2 {
  %3 = getelementptr inbounds i8, ptr %0, i64 56
  %4 = load ptr, ptr %3, align 8
  %5 = load i32, ptr %4, align 4
  %6 = icmp sgt i32 %5, 0
  br i1 %6, label %.lr.ph, label %.outer._crit_edge

.lr.ph:                                           ; preds = %2, %.outer
  %indvars.iv = phi i64 [ %indvars.iv.next, %.outer ], [ 0, %2 ]
  %7 = phi i32 [ %59, %.outer ], [ %5, %2 ]
  %8 = phi ptr [ %58, %.outer ], [ %4, %2 ]
  %.0.ph43 = phi ptr [ %.038, %.outer ], [ %1, %2 ]
  %.027.ph42 = phi i1 [ %.1, %.outer ], [ false, %2 ]
  br label %9

9:                                                ; preds = %.lr.ph, %42
  %10 = phi i32 [ %7, %.lr.ph ], [ %45, %42 ]
  %11 = phi ptr [ %8, %.lr.ph ], [ %44, %42 ]
  %.038 = phi ptr [ %.0.ph43, %.lr.ph ], [ %43, %42 ]
  %12 = getelementptr inbounds i8, ptr %11, i64 8
  %13 = load ptr, ptr %12, align 8
  %14 = getelementptr inbounds ptr, ptr %13, i64 %indvars.iv
  %15 = load ptr, ptr %14, align 8
  %16 = getelementptr inbounds i8, ptr %15, i64 8
  %17 = load ptr, ptr %16, align 8
  %18 = getelementptr inbounds i8, ptr %17, i64 40
  %19 = load volatile ptr, ptr %18, align 8
  %20 = getelementptr inbounds i8, ptr %17, i64 32
  %21 = load ptr, ptr %20, align 8
  %.not.i = icmp ule ptr %21, %.038
  %22 = getelementptr inbounds i8, ptr %17, i64 48
  %23 = load ptr, ptr %22, align 8
  %24 = icmp ugt ptr %23, %.038
  %25 = select i1 %.not.i, i1 %24, i1 false
  br i1 %25, label %26, label %52

26:                                               ; preds = %9
  %27 = add nsw i32 %10, -1
  %28 = sext i32 %27 to i64
  %29 = icmp slt i64 %indvars.iv, %28
  br i1 %29, label %30, label %48

30:                                               ; preds = %26
  %31 = ptrtoint ptr %23 to i64
  %32 = ptrtoint ptr %.038 to i64
  %33 = sub i64 %31, %32
  %34 = lshr i64 %33, 3
  %35 = load i32, ptr @MinObjAlignment, align 4
  %36 = add i32 %35, 1
  %37 = sub i32 0, %35
  %38 = and i32 %36, %37
  %39 = sext i32 %38 to i64
  %40 = icmp ult i64 %34, %39
  %41 = icmp ugt i64 %33, 7
  %or.cond = and i1 %41, %40
  br i1 %or.cond, label %42, label %48

42:                                               ; preds = %30
  tail call void @_ZN13CollectedHeap16fill_with_objectEPP12HeapWordImplmb(ptr noundef %.038, i64 noundef %39, i1 noundef zeroext true) #11
  %43 = getelementptr inbounds ptr, ptr %.038, i64 %39
  %44 = load ptr, ptr %3, align 8
  %45 = load i32, ptr %44, align 4
  %46 = sext i32 %45 to i64
  %47 = icmp slt i64 %indvars.iv, %46
  br i1 %47, label %9, label %.outer._crit_edge, !llvm.loop !18

48:                                               ; preds = %30, %26
  %49 = load ptr, ptr %17, align 8
  %50 = getelementptr inbounds i8, ptr %49, i64 16
  %51 = load ptr, ptr %50, align 8
  tail call void %51(ptr noundef nonnull align 8 dereferenceable(56) %17, ptr noundef %.038) #11
  br label %.outer

52:                                               ; preds = %9
  %53 = load ptr, ptr %17, align 8
  %54 = getelementptr inbounds i8, ptr %53, i64 16
  %55 = load ptr, ptr %54, align 8
  br i1 %.027.ph42, label %56, label %57

56:                                               ; preds = %52
  tail call void %55(ptr noundef nonnull align 8 dereferenceable(56) %17, ptr noundef %21) #11
  br label %.outer

57:                                               ; preds = %52
  tail call void %55(ptr noundef nonnull align 8 dereferenceable(56) %17, ptr noundef %23) #11
  br label %.outer

.outer:                                           ; preds = %56, %57, %48
  %.1 = phi i1 [ true, %48 ], [ true, %56 ], [ false, %57 ]
  %indvars.iv.next = add nuw nsw i64 %indvars.iv, 1
  %58 = load ptr, ptr %3, align 8
  %59 = load i32, ptr %58, align 4
  %60 = sext i32 %59 to i64
  %61 = icmp slt i64 %indvars.iv.next, %60
  br i1 %61, label %.lr.ph, label %.outer._crit_edge, !llvm.loop !18

.outer._crit_edge:                                ; preds = %.outer, %42, %2
  %.0.lcssa = phi ptr [ %1, %2 ], [ %43, %42 ], [ %.038, %.outer ]
  %62 = getelementptr inbounds i8, ptr %0, i64 40
  store volatile ptr %.0.lcssa, ptr %62, align 8
  ret void
}